; ModuleID = '16/777.cpp'
source_filename = "16/777.cpp"
target datalayout = "e-m:e-p270:32:32-p271:32:32-p272:64:64-i64:64-f80:128-n8:16:32:64-S128"
target triple = "x86_64-pc-linux-gnu"

%"class.std::ios_base::Init" = type { i8 }
%"class.std::basic_istream" = type { i32 (...)**, i64, %"class.std::basic_ios" }
%"class.std::basic_ios" = type { %"class.std::ios_base", %"class.std::basic_ostream"*, i8, i8, %"class.std::basic_streambuf"*, %"class.std::ctype"*, %"class.std::num_put"*, %"class.std::num_get"* }
%"class.std::ios_base" = type { i32 (...)**, i64, i64, i32, i32, i32, %"struct.std::ios_base::_Callback_list"*, %"struct.std::ios_base::_Words", [8 x %"struct.std::ios_base::_Words"], i32, %"struct.std::ios_base::_Words"*, %"class.std::locale" }
%"struct.std::ios_base::_Callback_list" = type { %"struct.std::ios_base::_Callback_list"*, void (i32, %"class.std::ios_base"*, i32)*, i32, i32 }
%"struct.std::ios_base::_Words" = type { i8*, i64 }
%"class.std::locale" = type { %"class.std::locale::_Impl"* }
%"class.std::locale::_Impl" = type { i32, %"class.std::locale::facet"**, i64, %"class.std::locale::facet"**, i8** }
%"class.std::locale::facet" = type <{ i32 (...)**, i32, [4 x i8] }>
%"class.std::basic_ostream" = type { i32 (...)**, %"class.std::basic_ios" }
%"class.std::basic_streambuf" = type { i32 (...)**, i8*, i8*, i8*, i8*, i8*, i8*, %"class.std::locale" }
%"class.std::ctype" = type <{ %"class.std::locale::facet.base", [4 x i8], %struct.__locale_struct*, i8, [7 x i8], i32*, i32*, i16*, i8, [256 x i8], [256 x i8], i8, [6 x i8] }>
%"class.std::locale::facet.base" = type <{ i32 (...)**, i32 }>
%struct.__locale_struct = type { [13 x %struct.__locale_data*], i16*, i32*, i32*, [13 x i8*] }
%struct.__locale_data = type opaque
%"class.std::num_put" = type { %"class.std::locale::facet.base", [4 x i8] }
%"class.std::num_get" = type { %"class.std::locale::facet.base", [4 x i8] }

@_ZStL8__ioinit = internal global %"class.std::ios_base::Init" zeroinitializer, align 1
@__dso_handle = external hidden global i8
@_ZSt3cin = external dso_local global %"class.std::basic_istream", align 8
@_ZSt4cout = external dso_local global %"class.std::basic_ostream", align 8
@llvm.global_ctors = appending global [1 x { i32, void ()*, i8* }] [{ i32, void ()*, i8* } { i32 65535, void ()* @_GLOBAL__sub_I_777.cpp, i8* null }]

; Function Attrs: noinline uwtable
define internal void @__cxx_global_var_init() #0 section ".text.startup" {
  call void @_ZNSt8ios_base4InitC1Ev(%"class.std::ios_base::Init"* @_ZStL8__ioinit)
  %1 = call i32 @__cxa_atexit(void (i8*)* bitcast (void (%"class.std::ios_base::Init"*)* @_ZNSt8ios_base4InitD1Ev to void (i8*)*), i8* getelementptr inbounds (%"class.std::ios_base::Init", %"class.std::ios_base::Init"* @_ZStL8__ioinit, i32 0, i32 0), i8* @__dso_handle) #3
  ret void
}

declare dso_local void @_ZNSt8ios_base4InitC1Ev(%"class.std::ios_base::Init"*) unnamed_addr #1

; Function Attrs: nounwind
declare dso_local void @_ZNSt8ios_base4InitD1Ev(%"class.std::ios_base::Init"*) unnamed_addr #2

; Function Attrs: nounwind
declare dso_local i32 @__cxa_atexit(void (i8*)*, i8*, i8*) #3

; Function Attrs: noinline norecurse uwtable
define dso_local i32 @main() #4 {
  %1 = alloca i32, align 4
  %2 = alloca i32, align 4
  store i32 0, i32* %1, align 4
  %3 = call dereferenceable(280) %"class.std::basic_istream"* @_ZNSirsERi(%"class.std::basic_istream"* @_ZSt3cin, i32* dereferenceable(4) %2)
  %4 = load i32, i32* %2, align 4
  %5 = icmp slt i32 %4, 10
  br i1 %5, label %6, label %9

6:                                                ; preds = %0
  %7 = load i32, i32* %2, align 4
  %8 = call dereferenceable(272) %"class.std::basic_ostream"* @_ZNSolsEi(%"class.std::basic_ostream"* @_ZSt4cout, i32 %7)
  br label %84

9:                                                ; preds = %0
  %10 = load i32, i32* %2, align 4
  %11 = icmp sle i32 10, %10
  br i1 %11, label %12, label %22

12:                                               ; preds = %9
  %13 = load i32, i32* %2, align 4
  %14 = icmp slt i32 %13, 100
  br i1 %14, label %15, label %22

15:                                               ; preds = %12
  %16 = load i32, i32* %2, align 4
  %17 = srem i32 %16, 10
  %18 = call dereferenceable(272) %"class.std::basic_ostream"* @_ZNSolsEi(%"class.std::basic_ostream"* @_ZSt4cout, i32 %17)
  %19 = load i32, i32* %2, align 4
  %20 = sdiv i32 %19, 10
  %21 = call dereferenceable(272) %"class.std::basic_ostream"* @_ZNSolsEi(%"class.std::basic_ostream"* %18, i32 %20)
  br label %83

22:                                               ; preds = %12, %9
  %23 = load i32, i32* %2, align 4
  %24 = icmp sge i32 %23, 100
  br i1 %24, label %25, label %45

25:                                               ; preds = %22
  %26 = load i32, i32* %2, align 4
  %27 = icmp sle i32 %26, 999
  br i1 %27, label %28, label %45

28:                                               ; preds = %25
  %29 = load i32, i32* %2, align 4
  %30 = load i32, i32* %2, align 4
  %31 = sdiv i32 %30, 10
  %32 = mul nsw i32 %31, 10
  %33 = sub nsw i32 %29, %32
  %34 = call dereferenceable(272) %"class.std::basic_ostream"* @_ZNSolsEi(%"class.std::basic_ostream"* @_ZSt4cout, i32 %33)
  %35 = load i32, i32* %2, align 4
  %36 = sdiv i32 %35, 10
  %37 = load i32, i32* %2, align 4
  %38 = sdiv i32 %37, 100
  %39 = mul nsw i32 %38, 10
  %40 = sub nsw i32 %36, %39
  %41 = call dereferenceable(272) %"class.std::basic_ostream"* @_ZNSolsEi(%"class.std::basic_ostream"* %34, i32 %40)
  %42 = load i32, i32* %2, align 4
  %43 = sdiv i32 %42, 100
  %44 = call dereferenceable(272) %"class.std::basic_ostream"* @_ZNSolsEi(%"class.std::basic_ostream"* %41, i32 %43)
  br label %82

45:                                               ; preds = %25, %22
  %46 = load i32, i32* %2, align 4
  %47 = icmp sge i32 %46, 1000
  br i1 %47, label %48, label %75

48:                                               ; preds = %45
  %49 = load i32, i32* %2, align 4
  %50 = icmp sle i32 %49, 9999
  br i1 %50, label %51, label %75

51:                                               ; preds = %48
  %52 = load i32, i32* %2, align 4
  %53 = load i32, i32* %2, align 4
  %54 = sdiv i32 %53, 10
  %55 = mul nsw i32 %54, 10
  %56 = sub nsw i32 %52, %55
  %57 = call dereferenceable(272) %"class.std::basic_ostream"* @_ZNSolsEi(%"class.std::basic_ostream"* @_ZSt4cout, i32 %56)
  %58 = load i32, i32* %2, align 4
  %59 = sdiv i32 %58, 10
  %60 = load i32, i32* %2, align 4
  %61 = sdiv i32 %60, 100
  %62 = mul nsw i32 %61, 10
  %63 = sub nsw i32 %59, %62
  %64 = call dereferenceable(272) %"class.std::basic_ostream"* @_ZNSolsEi(%"class.std::basic_ostream"* %57, i32 %63)
  %65 = load i32, i32* %2, align 4
  %66 = sdiv i32 %65, 100
  %67 = load i32, i32* %2, align 4
  %68 = sdiv i32 %67, 1000
  %69 = mul nsw i32 %68, 10
  %70 = sub nsw i32 %66, %69
  %71 = call dereferenceable(272) %"class.std::basic_ostream"* @_ZNSolsEi(%"class.std::basic_ostream"* %64, i32 %70)
  %72 = load i32, i32* %2, align 4
  %73 = sdiv i32 %72, 1000
  %74 = call dereferenceable(272) %"class.std::basic_ostream"* @_ZNSolsEi(%"class.std::basic_ostream"* %71, i32 %73)
  br label %81

75:                                               ; preds = %48, %45
  %76 = load i32, i32* %2, align 4
  %77 = icmp eq i32 %76, 10000
  br i1 %77, label %78, label %80

78:                                               ; preds = %75
  %79 = call dereferenceable(272) %"class.std::basic_ostream"* @_ZNSolsEi(%"class.std::basic_ostream"* @_ZSt4cout, i32 1)
  br label %80

80:                                               ; preds = %78, %75
  br label %81

81:                                               ; preds = %80, %51
  br label %82

82:                                               ; preds = %81, %28
  br label %83

83:                                               ; preds = %82, %15
  br label %84

84:                                               ; preds = %83, %6
  ret i32 0
}

declare dso_local dereferenceable(280) %"class.std::basic_istream"* @_ZNSirsERi(%"class.std::basic_istream"*, i32* dereferenceable(4)) #1

declare dso_local dereferenceable(272) %"class.std::basic_ostream"* @_ZNSolsEi(%"class.std::basic_ostream"*, i32) #1

; Function Attrs: noinline uwtable
define internal void @_GLOBAL__sub_I_777.cpp() #0 section ".text.startup" {
  call void @__cxx_global_var_init()
  ret void
}


!llvm.module.flags = !{!0}
!llvm.ident = !{!1}

!0 = !{i32 1, !"wchar_size", i32 4}
!1 = !{!"clang version 10.0.0-4ubuntu1 "}
